#include <math.h>
#include <stdio.h>
#include <stdlib.h>
#include <string.h>

int main(){
	int n,i,j,c;
	scanf("%d",&n);
	char a[1000][256],b[1000][256];
	for(i=0;i<n;i++){
		scanf("%s",&a[i]);
	}
	for(i=0;i<n;i++){
		j=0;
		c=strlen(a[i]);
		for(j=0;j<c;j++){
			if(a[i][j]=='A')  b[i][j]='T';
			if(a[i][j]=='T')  b[i][j]='A';
			if(a[i][j]=='G')  b[i][j]='C';
			if(a[i][j]=='C') b[i][j]='G';
			printf("%c",b[i][j]);
		}
		printf("\n");
	}
	return 0;
}
		
